; Function Attrs: nounwind uwtable
define internal fastcc void @array_common(ptr noundef %0) unnamed_addr #3 {
  %2 = getelementptr inbounds nuw i8, ptr %0, i64 32
  %3 = load i64, ptr %2, align 8, !tbaa !14
  %.not.i = icmp eq i64 %3, 0
  br i1 %.not.i, label %4, label %5

4:                                                ; preds = %1
  tail call void (ptr, i32, ptr, ...) @BUG_fl(ptr noundef nonnull @.str.4, i32 noundef 85, ptr noundef nonnull @.str.20) #9
  unreachable

5:                                                ; preds = %1
  %6 = getelementptr inbounds nuw i8, ptr %0, i64 40
  %7 = load ptr, ptr %6, align 8, !tbaa !17
  %8 = getelementptr i8, ptr %7, i64 %3
  %9 = getelementptr i8, ptr %8, i64 -1
  %10 = load i8, ptr %9, align 1, !tbaa !13
  %.not3.i = icmp eq i8 %10, 91
  br i1 %.not3.i, label %assert_in_array.exit, label %11

11:                                               ; preds = %5
  tail call void (ptr, i32, ptr, ...) @BUG_fl(ptr noundef nonnull @.str.4, i32 noundef 87, ptr noundef nonnull @.str.21) #9
  unreachable

assert_in_array.exit:                             ; preds = %5
  %12 = getelementptr inbounds nuw i8, ptr %0, i64 48
  %13 = load i8, ptr %12, align 8
  %14 = and i8 %13, 1
  %.not.i5 = icmp eq i8 %14, 0
  br i1 %.not.i5, label %27, label %15

15:                                               ; preds = %assert_in_array.exit
  %16 = load i64, ptr %0, align 8, !tbaa !4
  %.not.i.i.i = icmp eq i64 %16, 0
  br i1 %.not.i.i.i, label %strbuf_avail.exit.thread.i.i, label %strbuf_avail.exit.i.i

strbuf_avail.exit.i.i:                            ; preds = %15
  %17 = getelementptr inbounds nuw i8, ptr %0, i64 8
  %18 = load i64, ptr %17, align 8, !tbaa !11
  %.neg.i.i = add i64 %18, 1
  %.not.i.i = icmp eq i64 %16, %.neg.i.i
  br i1 %.not.i.i, label %strbuf_avail.exit.thread.i.i, label %strbuf_addch.exit.i

strbuf_avail.exit.thread.i.i:                     ; preds = %strbuf_avail.exit.i.i, %15
  tail call void @strbuf_grow(ptr noundef nonnull %0, i64 noundef 1) #8
  %.phi.trans.insert.i.i = getelementptr inbounds nuw i8, ptr %0, i64 8
  %.pre.i.i = load i64, ptr %.phi.trans.insert.i.i, align 8, !tbaa !11
  %.pre7.i.i = add i64 %.pre.i.i, 1
  br label %strbuf_addch.exit.i

strbuf_addch.exit.i:                              ; preds = %strbuf_avail.exit.thread.i.i, %strbuf_avail.exit.i.i
  %.pre-phi.i.i = phi i64 [ %.pre7.i.i, %strbuf_avail.exit.thread.i.i ], [ %.neg.i.i, %strbuf_avail.exit.i.i ]
  %19 = phi i64 [ %.pre.i.i, %strbuf_avail.exit.thread.i.i ], [ %18, %strbuf_avail.exit.i.i ]
  %20 = getelementptr inbounds nuw i8, ptr %0, i64 16
  %21 = load ptr, ptr %20, align 8, !tbaa !12
  %22 = getelementptr inbounds nuw i8, ptr %0, i64 8
  store i64 %.pre-phi.i.i, ptr %22, align 8, !tbaa !11
  %23 = getelementptr inbounds nuw i8, ptr %21, i64 %19
  store i8 44, ptr %23, align 1, !tbaa !13
  %24 = load ptr, ptr %20, align 8, !tbaa !12
  %25 = load i64, ptr %22, align 8, !tbaa !11
  %26 = getelementptr inbounds nuw i8, ptr %24, i64 %25
  store i8 0, ptr %26, align 1, !tbaa !13
  %.pre = load i8, ptr %12, align 8
  br label %maybe_add_comma.exit

27:                                               ; preds = %assert_in_array.exit
  %28 = or disjoint i8 %13, 1
  store i8 %28, ptr %12, align 8
  br label %maybe_add_comma.exit

maybe_add_comma.exit:                             ; preds = %strbuf_addch.exit.i, %27
  %29 = phi i8 [ %.pre, %strbuf_addch.exit.i ], [ %28, %27 ]
  %30 = and i8 %29, 2
  %.not = icmp eq i8 %30, 0
  br i1 %.not, label %44, label %31

31:                                               ; preds = %maybe_add_comma.exit
  %32 = load i64, ptr %0, align 8, !tbaa !4
  %.not.i.i6 = icmp eq i64 %32, 0
  br i1 %.not.i.i6, label %strbuf_avail.exit.thread.i, label %strbuf_avail.exit.i

strbuf_avail.exit.i:                              ; preds = %31
  %33 = getelementptr inbounds nuw i8, ptr %0, i64 8
  %34 = load i64, ptr %33, align 8, !tbaa !11
  %.neg.i = add i64 %34, 1
  %.not.i7 = icmp eq i64 %32, %.neg.i
  br i1 %.not.i7, label %strbuf_avail.exit.thread.i, label %strbuf_addch.exit

strbuf_avail.exit.thread.i:                       ; preds = %strbuf_avail.exit.i, %31
  tail call void @strbuf_grow(ptr noundef nonnull %0, i64 noundef 1) #8
  %.phi.trans.insert.i = getelementptr inbounds nuw i8, ptr %0, i64 8
  %.pre.i = load i64, ptr %.phi.trans.insert.i, align 8, !tbaa !11
  %.pre7.i = add i64 %.pre.i, 1
  br label %strbuf_addch.exit

strbuf_addch.exit:                                ; preds = %strbuf_avail.exit.i, %strbuf_avail.exit.thread.i
  %.pre-phi.i = phi i64 [ %.pre7.i, %strbuf_avail.exit.thread.i ], [ %.neg.i, %strbuf_avail.exit.i ]
  %35 = phi i64 [ %.pre.i, %strbuf_avail.exit.thread.i ], [ %34, %strbuf_avail.exit.i ]
  %36 = getelementptr inbounds nuw i8, ptr %0, i64 16
  %37 = load ptr, ptr %36, align 8, !tbaa !12
  %38 = getelementptr inbounds nuw i8, ptr %0, i64 8
  store i64 %.pre-phi.i, ptr %38, align 8, !tbaa !11
  %39 = getelementptr inbounds nuw i8, ptr %37, i64 %35
  store i8 10, ptr %39, align 1, !tbaa !13
  %40 = load ptr, ptr %36, align 8, !tbaa !12
  %41 = load i64, ptr %38, align 8, !tbaa !11
  %42 = getelementptr inbounds nuw i8, ptr %40, i64 %41
  store i8 0, ptr %42, align 1, !tbaa !13
  %43 = load i64, ptr %2, align 8, !tbaa !14
  tail call void @strbuf_addstrings(ptr noundef nonnull %0, ptr noundef nonnull @.str.24, i64 noundef %43) #8
  br label %44

44:                                               ; preds = %strbuf_addch.exit, %maybe_add_comma.exit
  ret void
}